; Function Attrs: nounwind uwtable
define ptr @Abc_NtkToNetlist(ptr noundef %0) local_unnamed_addr #0 {
  %.val = load i32, ptr %0, align 8, !tbaa !3
  %.not = icmp eq i32 %.val, 3
  br i1 %.not, label %2, label %5

2:                                                ; preds = %1
  %3 = tail call fastcc ptr @Abc_NtkAigToLogicSop(ptr noundef nonnull %0)
  %4 = tail call fastcc ptr @Abc_NtkLogicToNetlist(ptr noundef %3)
  tail call void @Abc_NtkDelete(ptr noundef %3) #8
  br label %7

5:                                                ; preds = %1
  %6 = tail call fastcc ptr @Abc_NtkLogicToNetlist(ptr noundef nonnull %0)
  br label %7

7:                                                ; preds = %5, %2
  %.0 = phi ptr [ %4, %2 ], [ %6, %5 ]
  ret ptr %.0
}